target datalayout = "e-m:e-p270:32:32-p271:32:32-p272:64:64-i64:64-i128:128-f80:128-n8:16:32:64-S128"
target triple = "x86_64-pc-linux-gnu"

%struct.dictType = type { ptr, ptr, ptr, ptr, ptr, ptr, ptr, ptr, ptr, ptr, ptr, i8, ptr, ptr, ptr }
%struct.dict = type { ptr, [2 x ptr], [2 x i64], i64, i16, [2 x i8], i16, [0 x ptr] }
%struct.dictEntry = type { ptr, %union.anon, ptr }
%union.anon = type { ptr }
%struct.dictEntryNoValue = type { ptr, ptr }

@.str.1 = private unnamed_addr constant [7 x i8] c"dict.c\00", align 1
@.str.9 = private unnamed_addr constant [18 x i8] c"entryHasValue(de)\00", align 1

; Function Attrs: inlinehint nounwind uwtable
define internal i32 @entryIsNormal(ptr noundef %0) #11 {
  %2 = alloca ptr, align 8
  store ptr %0, ptr %2, align 8, !tbaa !36
  %3 = load ptr, ptr %2, align 8, !tbaa !36
  %4 = ptrtoint ptr %3 to i64
  %5 = and i64 %4, 7
  %6 = icmp eq i64 %5, 0
  %7 = zext i1 %6 to i32
  ret i32 %7
}

; Function Attrs: inlinehint nounwind uwtable
define internal i32 @entryHasValue(ptr noundef %0) #11 {
  %2 = alloca ptr, align 8
  store ptr %0, ptr %2, align 8, !tbaa !36
  %3 = load ptr, ptr %2, align 8, !tbaa !36
  %4 = call i32 @entryIsNormal(ptr noundef %3)
  ret i32 %4
}

; Function Attrs: inlinehint nounwind uwtable
define internal ptr @decodeEntryNoValue(ptr noundef %0) #11 {
  %2 = alloca ptr, align 8
  store ptr %0, ptr %2, align 8, !tbaa !36
  %3 = load ptr, ptr %2, align 8, !tbaa !36
  %4 = call ptr @decodeMaskedPtr(ptr noundef %3)
  ret ptr %4
}

; Function Attrs: inlinehint nounwind uwtable
define internal i32 @entryIsNoValue(ptr noundef %0) #11 {
  %2 = alloca ptr, align 8
  store ptr %0, ptr %2, align 8, !tbaa !36
  %3 = load ptr, ptr %2, align 8, !tbaa !36
  %4 = ptrtoint ptr %3 to i64
  %5 = and i64 %4, 7
  %6 = icmp eq i64 %5, 4
  %7 = zext i1 %6 to i32
  ret i32 %7
}

; Function Attrs: nounwind uwtable
define internal void @_dictShrinkIfNeeded(ptr noundef %0) #0 {
  %2 = alloca ptr, align 8
  store ptr %0, ptr %2, align 8, !tbaa !18
  %3 = load ptr, ptr %2, align 8, !tbaa !18
  %4 = getelementptr inbounds nuw %struct.dict, ptr %3, i32 0, i32 6
  %5 = load i16, ptr %4, align 4, !tbaa !20
  %6 = sext i16 %5 to i32
  %7 = icmp sgt i32 %6, 0
  br i1 %7, label %8, label %9

8:                                                ; preds = %1
  br label %12

9:                                                ; preds = %1
  %10 = load ptr, ptr %2, align 8, !tbaa !18
  %11 = call i32 @dictShrinkIfNeeded(ptr noundef %10)
  br label %12

12:                                               ; preds = %9, %8
  ret void
}

; Function Attrs: inlinehint nounwind uwtable
define internal ptr @decodeMaskedPtr(ptr noundef %0) #11 {
  %2 = alloca ptr, align 8
  store ptr %0, ptr %2, align 8, !tbaa !36
  %3 = load ptr, ptr %2, align 8, !tbaa !36
  %4 = ptrtoint ptr %3 to i64
  %5 = and i64 %4, -8
  %6 = inttoptr i64 %5 to ptr
  ret ptr %6
}

; Function Attrs: inlinehint nounwind uwtable
define internal i32 @entryIsKey(ptr noundef %0) #11 {
  %2 = alloca ptr, align 8
  store ptr %0, ptr %2, align 8, !tbaa !36
  %3 = load ptr, ptr %2, align 8, !tbaa !36
  %4 = ptrtoint ptr %3 to i64
  %5 = and i64 %4, 3
  %6 = trunc i64 %5 to i32
  ret i32 %6
}

; Function Attrs: nounwind uwtable
define dso_local ptr @dictGetVal(ptr noundef %0) #0 {
  %2 = alloca ptr, align 8
  store ptr %0, ptr %2, align 8, !tbaa !36
  %3 = load ptr, ptr %2, align 8, !tbaa !36
  %4 = call i32 @entryHasValue(ptr noundef %3)
  %5 = icmp ne i32 %4, 0
  %6 = xor i1 %5, true
  %7 = xor i1 %6, true
  %8 = zext i1 %7 to i32
  %9 = sext i32 %8 to i64
  %10 = call i64 @llvm.expect.i64(i64 %9, i64 1)
  %11 = icmp ne i64 %10, 0
  br i1 %11, label %12, label %13

12:                                               ; preds = %1
  br label %15

13:                                               ; preds = %1
  call void @_serverAssert(ptr noundef @.str.9, ptr noundef @.str.1, i32 noundef 927)
  call void @abort() #17
  unreachable

14:                                               ; No predecessors!
  br label %15

15:                                               ; preds = %14, %12
  %16 = load ptr, ptr %2, align 8, !tbaa !36
  %17 = getelementptr inbounds nuw %struct.dictEntry, ptr %16, i32 0, i32 1
  %18 = load ptr, ptr %17, align 8, !tbaa !25
  ret ptr %18
}

; Function Attrs: nounwind uwtable
define dso_local ptr @dictGetKey(ptr noundef %0) #0 {
  %2 = alloca ptr, align 8
  %3 = alloca ptr, align 8
  store ptr %0, ptr %3, align 8, !tbaa !36
  %4 = load ptr, ptr %3, align 8, !tbaa !36
  %5 = ptrtoint ptr %4 to i64
  %6 = and i64 %5, 1
  %7 = icmp ne i64 %6, 0
  br i1 %7, label %8, label %10

8:                                                ; preds = %1
  %9 = load ptr, ptr %3, align 8, !tbaa !36
  store ptr %9, ptr %2, align 8
  br label %31

10:                                               ; preds = %1
  %11 = load ptr, ptr %3, align 8, !tbaa !36
  %12 = ptrtoint ptr %11 to i64
  %13 = and i64 %12, 2
  %14 = icmp ne i64 %13, 0
  br i1 %14, label %15, label %18

15:                                               ; preds = %10
  %16 = load ptr, ptr %3, align 8, !tbaa !36
  %17 = call ptr @decodeMaskedPtr(ptr noundef %16)
  store ptr %17, ptr %2, align 8
  br label %31

18:                                               ; preds = %10
  %19 = load ptr, ptr %3, align 8, !tbaa !36
  %20 = call i32 @entryIsNoValue(ptr noundef %19)
  %21 = icmp ne i32 %20, 0
  br i1 %21, label %22, label %27

22:                                               ; preds = %18
  %23 = load ptr, ptr %3, align 8, !tbaa !36
  %24 = call ptr @decodeEntryNoValue(ptr noundef %23)
  %25 = getelementptr inbounds nuw %struct.dictEntryNoValue, ptr %24, i32 0, i32 0
  %26 = load ptr, ptr %25, align 8, !tbaa !54
  store ptr %26, ptr %2, align 8
  br label %31

27:                                               ; preds = %18
  %28 = load ptr, ptr %3, align 8, !tbaa !36
  %29 = getelementptr inbounds nuw %struct.dictEntry, ptr %28, i32 0, i32 0
  %30 = load ptr, ptr %29, align 8, !tbaa !51
  store ptr %30, ptr %2, align 8
  br label %31

31:                                               ; preds = %27, %22, %15, %8
  %32 = load ptr, ptr %2, align 8
  ret ptr %32
}

; Function Attrs: nounwind uwtable
define internal ptr @dictGetNext(ptr noundef %0) #0 {
  %2 = alloca ptr, align 8
  %3 = alloca ptr, align 8
  store ptr %0, ptr %3, align 8, !tbaa !36
  %4 = load ptr, ptr %3, align 8, !tbaa !36
  %5 = call i32 @entryIsKey(ptr noundef %4)
  %6 = icmp ne i32 %5, 0
  br i1 %6, label %7, label %8

7:                                                ; preds = %1
  store ptr null, ptr %2, align 8
  br label %21

8:                                                ; preds = %1
  %9 = load ptr, ptr %3, align 8, !tbaa !36
  %10 = call i32 @entryIsNoValue(ptr noundef %9)
  %11 = icmp ne i32 %10, 0
  br i1 %11, label %12, label %17

12:                                               ; preds = %8
  %13 = load ptr, ptr %3, align 8, !tbaa !36
  %14 = call ptr @decodeEntryNoValue(ptr noundef %13)
  %15 = getelementptr inbounds nuw %struct.dictEntryNoValue, ptr %14, i32 0, i32 1
  %16 = load ptr, ptr %15, align 8, !tbaa !56
  store ptr %16, ptr %2, align 8
  br label %21

17:                                               ; preds = %8
  %18 = load ptr, ptr %3, align 8, !tbaa !36
  %19 = getelementptr inbounds nuw %struct.dictEntry, ptr %18, i32 0, i32 2
  %20 = load ptr, ptr %19, align 8, !tbaa !53
  store ptr %20, ptr %2, align 8
  br label %21

21:                                               ; preds = %17, %12, %7
  %22 = load ptr, ptr %2, align 8
  ret ptr %22
}

; Function Attrs: nounwind uwtable
define dso_local void @dictTwoPhaseUnlinkFree(ptr noundef %0, ptr noundef %1, ptr noundef %2, i32 noundef %3) #0 {
  %5 = alloca ptr, align 8
  %6 = alloca ptr, align 8
  %7 = alloca ptr, align 8
  %8 = alloca i32, align 4
  store ptr %0, ptr %5, align 8, !tbaa !18
  store ptr %1, ptr %6, align 8, !tbaa !36
  store ptr %2, ptr %7, align 8, !tbaa !30
  store i32 %3, ptr %8, align 4, !tbaa !29
  %9 = load ptr, ptr %6, align 8, !tbaa !36
  %10 = icmp eq ptr %9, null
  br i1 %10, label %11, label %12

11:                                               ; preds = %4
  br label %76

12:                                               ; preds = %4
  %13 = load ptr, ptr %5, align 8, !tbaa !18
  %14 = getelementptr inbounds nuw %struct.dict, ptr %13, i32 0, i32 2
  %15 = load i32, ptr %8, align 4, !tbaa !29
  %16 = sext i32 %15 to i64
  %17 = getelementptr inbounds [2 x i64], ptr %14, i64 0, i64 %16
  %18 = load i64, ptr %17, align 8, !tbaa !11
  %19 = add i64 %18, -1
  store i64 %19, ptr %17, align 8, !tbaa !11
  %20 = load ptr, ptr %6, align 8, !tbaa !36
  %21 = call ptr @dictGetNext(ptr noundef %20)
  %22 = load ptr, ptr %7, align 8, !tbaa !30
  store ptr %21, ptr %22, align 8, !tbaa !36
  %23 = load ptr, ptr %5, align 8, !tbaa !18
  %24 = getelementptr inbounds nuw %struct.dict, ptr %23, i32 0, i32 0
  %25 = load ptr, ptr %24, align 8, !tbaa !13
  %26 = getelementptr inbounds nuw %struct.dictType, ptr %25, i32 0, i32 4
  %27 = load ptr, ptr %26, align 8, !tbaa !60
  %28 = icmp ne ptr %27, null
  br i1 %28, label %29, label %38

29:                                               ; preds = %12
  %30 = load ptr, ptr %5, align 8, !tbaa !18
  %31 = getelementptr inbounds nuw %struct.dict, ptr %30, i32 0, i32 0
  %32 = load ptr, ptr %31, align 8, !tbaa !13
  %33 = getelementptr inbounds nuw %struct.dictType, ptr %32, i32 0, i32 4
  %34 = load ptr, ptr %33, align 8, !tbaa !60
  %35 = load ptr, ptr %5, align 8, !tbaa !18
  %36 = load ptr, ptr %6, align 8, !tbaa !36
  %37 = call ptr @dictGetKey(ptr noundef %36)
  call void %34(ptr noundef %35, ptr noundef %37)
  br label %38

38:                                               ; preds = %29, %12
  br label %39

39:                                               ; preds = %38
  %40 = load ptr, ptr %5, align 8, !tbaa !18
  %41 = getelementptr inbounds nuw %struct.dict, ptr %40, i32 0, i32 0
  %42 = load ptr, ptr %41, align 8, !tbaa !13
  %43 = getelementptr inbounds nuw %struct.dictType, ptr %42, i32 0, i32 5
  %44 = load ptr, ptr %43, align 8, !tbaa !57
  %45 = icmp ne ptr %44, null
  br i1 %45, label %46, label %55

46:                                               ; preds = %39
  %47 = load ptr, ptr %5, align 8, !tbaa !18
  %48 = getelementptr inbounds nuw %struct.dict, ptr %47, i32 0, i32 0
  %49 = load ptr, ptr %48, align 8, !tbaa !13
  %50 = getelementptr inbounds nuw %struct.dictType, ptr %49, i32 0, i32 5
  %51 = load ptr, ptr %50, align 8, !tbaa !57
  %52 = load ptr, ptr %5, align 8, !tbaa !18
  %53 = load ptr, ptr %6, align 8, !tbaa !36
  %54 = call ptr @dictGetVal(ptr noundef %53)
  call void %51(ptr noundef %52, ptr noundef %54)
  br label %55

55:                                               ; preds = %46, %39
  br label %56

56:                                               ; preds = %55
  %57 = load ptr, ptr %6, align 8, !tbaa !36
  %58 = call i32 @entryIsKey(ptr noundef %57)
  %59 = icmp ne i32 %58, 0
  br i1 %59, label %63, label %60

60:                                               ; preds = %56
  %61 = load ptr, ptr %6, align 8, !tbaa !36
  %62 = call ptr @decodeMaskedPtr(ptr noundef %61)
  call void @zfree(ptr noundef %62)
  br label %63

63:                                               ; preds = %60, %56
  %64 = load ptr, ptr %5, align 8, !tbaa !18
  call void @_dictShrinkIfNeeded(ptr noundef %64)
  %65 = load ptr, ptr %5, align 8, !tbaa !18
  %66 = getelementptr inbounds nuw %struct.dict, ptr %65, i32 0, i32 4
  %67 = load i16, ptr %66, align 8
  %68 = and i16 %67, 32767
  %69 = zext i16 %68 to i32
  %70 = add i32 %69, -1
  %71 = trunc i32 %70 to i16
  %72 = load i16, ptr %66, align 8
  %73 = and i16 %71, 32767
  %74 = and i16 %72, -32768
  %75 = or i16 %74, %73
  store i16 %75, ptr %66, align 8
  br label %76

76:                                               ; preds = %63, %11
  ret void
}