; Function Attrs: nounwind uwtable
define dso_local void @dictTwoPhaseUnlinkFree(ptr noundef %0, ptr noundef %1, ptr noundef writeonly captures(none) %2, i32 noundef %3) local_unnamed_addr #3 {
  %5 = icmp eq ptr %1, null
  br i1 %5, label %67, label %6

6:                                                ; preds = %4
  %7 = getelementptr inbounds nuw i8, ptr %0, i64 24
  %8 = sext i32 %3 to i64
  %9 = getelementptr inbounds [2 x i64], ptr %7, i64 0, i64 %8
  %10 = load i64, ptr %9, align 8, !tbaa !14
  %11 = add i64 %10, -1
  store i64 %11, ptr %9, align 8, !tbaa !14
  %12 = ptrtoint ptr %1 to i64
  %13 = and i64 %12, 3
  %.not.i = icmp eq i64 %13, 0
  br i1 %.not.i, label %14, label %dictGetNext.exit

14:                                               ; preds = %6
  %15 = and i64 %12, 4
  %.not5.i = icmp eq i64 %15, 0
  br i1 %.not5.i, label %21, label %16

16:                                               ; preds = %14
  %17 = and i64 %12, -8
  %18 = inttoptr i64 %17 to ptr
  %19 = getelementptr inbounds nuw i8, ptr %18, i64 8
  %20 = load ptr, ptr %19, align 8, !tbaa !35
  br label %dictGetNext.exit

21:                                               ; preds = %14
  %22 = getelementptr inbounds nuw i8, ptr %1, i64 16
  %23 = load ptr, ptr %22, align 8, !tbaa !37
  br label %dictGetNext.exit

dictGetNext.exit:                                 ; preds = %6, %16, %21
  %.0.i = phi ptr [ %20, %16 ], [ %23, %21 ], [ null, %6 ]
  store ptr %.0.i, ptr %2, align 8, !tbaa !31
  %24 = load ptr, ptr %0, align 8, !tbaa !16
  %25 = getelementptr inbounds nuw i8, ptr %24, i64 32
  %26 = load ptr, ptr %25, align 8, !tbaa !56
  %.not = icmp eq ptr %26, null
  br i1 %.not, label %42, label %27

27:                                               ; preds = %dictGetNext.exit
  %28 = and i64 %12, 1
  %.not.i20 = icmp eq i64 %28, 0
  br i1 %.not.i20, label %29, label %dictGetKey.exit

29:                                               ; preds = %27
  %30 = and i64 %12, 2
  %.not8.i = icmp eq i64 %30, 0
  br i1 %.not8.i, label %34, label %31

31:                                               ; preds = %29
  %32 = and i64 %12, -8
  %33 = inttoptr i64 %32 to ptr
  br label %dictGetKey.exit

34:                                               ; preds = %29
  %35 = and i64 %12, 4
  %.not9.i = icmp eq i64 %35, 0
  br i1 %.not9.i, label %40, label %36

36:                                               ; preds = %34
  %37 = and i64 %12, -8
  %38 = inttoptr i64 %37 to ptr
  %39 = load ptr, ptr %38, align 8, !tbaa !39
  br label %dictGetKey.exit

40:                                               ; preds = %34
  %41 = load ptr, ptr %1, align 8, !tbaa !40
  br label %dictGetKey.exit

dictGetKey.exit:                                  ; preds = %27, %31, %36, %40
  %.0.i21 = phi ptr [ %33, %31 ], [ %39, %36 ], [ %41, %40 ], [ %1, %27 ]
  tail call void %26(ptr noundef nonnull %0, ptr noundef %.0.i21) #25
  %.pre = load ptr, ptr %0, align 8, !tbaa !16
  br label %42

42:                                               ; preds = %dictGetNext.exit, %dictGetKey.exit
  %43 = phi ptr [ %24, %dictGetNext.exit ], [ %.pre, %dictGetKey.exit ]
  %44 = getelementptr inbounds nuw i8, ptr %43, i64 40
  %45 = load ptr, ptr %44, align 8, !tbaa !55
  %.not18 = icmp eq ptr %45, null
  br i1 %.not18, label %51, label %46

46:                                               ; preds = %42
  %47 = and i64 %12, 7
  %.not.i22 = icmp eq i64 %47, 0
  br i1 %.not.i22, label %dictGetVal.exit, label %48, !prof !25

48:                                               ; preds = %46
  tail call void @_serverAssert(ptr noundef nonnull @.str.9, ptr noundef nonnull @.str.1, i32 noundef 927) #25
  tail call void @abort() #27
  unreachable

dictGetVal.exit:                                  ; preds = %46
  %49 = getelementptr inbounds nuw i8, ptr %1, i64 8
  %50 = load ptr, ptr %49, align 8, !tbaa !13
  tail call void %45(ptr noundef nonnull %0, ptr noundef %50) #25
  br label %51

51:                                               ; preds = %42, %dictGetVal.exit
  br i1 %.not.i, label %52, label %55

52:                                               ; preds = %51
  %53 = and i64 %12, -8
  %54 = inttoptr i64 %53 to ptr
  tail call void @zfree(ptr noundef %54) #25
  br label %55

55:                                               ; preds = %52, %51
  %56 = getelementptr inbounds nuw i8, ptr %0, i64 52
  %57 = load i16, ptr %56, align 4, !tbaa !18
  %58 = icmp sgt i16 %57, 0
  br i1 %58, label %_dictShrinkIfNeeded.exit, label %59

59:                                               ; preds = %55
  %60 = tail call i32 @dictShrinkIfNeeded(ptr noundef nonnull %0)
  br label %_dictShrinkIfNeeded.exit

_dictShrinkIfNeeded.exit:                         ; preds = %55, %59
  %61 = getelementptr inbounds nuw i8, ptr %0, i64 48
  %62 = load i16, ptr %61, align 8
  %63 = add i16 %62, 32767
  %64 = and i16 %63, 32767
  %65 = and i16 %62, -32768
  %66 = or disjoint i16 %64, %65
  store i16 %66, ptr %61, align 8
  br label %67

67:                                               ; preds = %4, %_dictShrinkIfNeeded.exit
  ret void
}